target datalayout = "e-m:e-p270:32:32-p271:32:32-p272:64:64-i64:64-i128:128-f80:128-n8:16:32:64-S128"
target triple = "x86_64-pc-linux-gnu"

%"struct.Luau::CodeGen::X64::RegisterX64" = type { i8 }
%"struct.Luau::CodeGen::X64::OperandX64" = type { i8, %"struct.Luau::CodeGen::X64::RegisterX64", %"struct.Luau::CodeGen::X64::RegisterX64", i8, i32 }
%"class.Luau::CodeGen::X64::IrCallWrapperX64" = type { ptr, ptr, i32, %"struct.std::array", i32, i32, i32, %"struct.Luau::CodeGen::X64::OperandX64", %"struct.std::array.0", %"struct.std::array.0" }
%"struct.std::array" = type { [6 x %"struct.Luau::CodeGen::X64::CallArgument"] }
%"struct.Luau::CodeGen::X64::CallArgument" = type <{ i8, [3 x i8], %"struct.Luau::CodeGen::X64::OperandX64", %"struct.Luau::CodeGen::IrOp", %"struct.Luau::CodeGen::X64::OperandX64", i8, [3 x i8] }>
%"struct.Luau::CodeGen::IrOp" = type { i32 }
%"struct.std::array.0" = type { [16 x i8] }

; Function Attrs: mustprogress nounwind uwtable
define linkonce_odr dso_local noundef nonnull align 4 dereferenceable(25) ptr @_ZNSt14__array_traitsIN4Luau7CodeGen3X6412CallArgumentELm6EE6_S_refERA6_KS3_m(ptr noundef nonnull align 4 dereferenceable(168) %0, i64 noundef %1) #3 comdat align 2 {
  %3 = alloca ptr, align 8
  %4 = alloca i64, align 8
  store ptr %0, ptr %3, align 8, !tbaa !39
  store i64 %1, ptr %4, align 8, !tbaa !83
  %5 = load ptr, ptr %3, align 8, !tbaa !39
  %6 = load i64, ptr %4, align 8, !tbaa !83
  %7 = getelementptr inbounds nuw [6 x %"struct.Luau::CodeGen::X64::CallArgument"], ptr %5, i64 0, i64 %6
  ret ptr %7
}

; Function Attrs: mustprogress nounwind uwtable
define linkonce_odr dso_local noundef nonnull align 4 dereferenceable(25) ptr @_ZNSt5arrayIN4Luau7CodeGen3X6412CallArgumentELm6EEixEm(ptr noundef nonnull align 4 dereferenceable(168) %0, i64 noundef %1) #3 comdat align 2 {
  %3 = alloca ptr, align 8
  %4 = alloca i64, align 8
  store ptr %0, ptr %3, align 8, !tbaa !28
  store i64 %1, ptr %4, align 8, !tbaa !83
  %5 = load ptr, ptr %3, align 8
  %6 = getelementptr inbounds nuw %"struct.std::array", ptr %5, i32 0, i32 0
  %7 = load i64, ptr %4, align 8, !tbaa !83
  %8 = call noundef nonnull align 4 dereferenceable(25) ptr @_ZNSt14__array_traitsIN4Luau7CodeGen3X6412CallArgumentELm6EE6_S_refERA6_KS3_m(ptr noundef nonnull align 4 dereferenceable(168) %6, i64 noundef %7) #10
  ret ptr %8
}

; Function Attrs: mustprogress uwtable
define dso_local void @_ZN4Luau7CodeGen3X6416IrCallWrapperX6421renameSourceRegistersENS1_11RegisterX64ES3_(ptr noundef nonnull align 8 dereferenceable(240) %0, i8 %1, i8 %2) #0 align 2 {
  %4 = alloca %"struct.Luau::CodeGen::X64::RegisterX64", align 1
  %5 = alloca %"struct.Luau::CodeGen::X64::RegisterX64", align 1
  %6 = alloca ptr, align 8
  %7 = alloca i32, align 4
  %8 = alloca ptr, align 8
  %9 = alloca %"struct.Luau::CodeGen::X64::RegisterX64", align 1
  %10 = alloca %"struct.Luau::CodeGen::X64::RegisterX64", align 1
  %11 = alloca %"struct.Luau::CodeGen::X64::RegisterX64", align 1
  %12 = alloca %"struct.Luau::CodeGen::X64::RegisterX64", align 1
  %13 = alloca %"struct.Luau::CodeGen::X64::RegisterX64", align 1
  %14 = alloca %"struct.Luau::CodeGen::X64::RegisterX64", align 1
  %15 = alloca %"struct.Luau::CodeGen::X64::RegisterX64", align 1
  %16 = alloca %"struct.Luau::CodeGen::X64::RegisterX64", align 1
  %17 = getelementptr inbounds nuw %"struct.Luau::CodeGen::X64::RegisterX64", ptr %4, i32 0, i32 0
  store i8 %1, ptr %17, align 1
  %18 = getelementptr inbounds nuw %"struct.Luau::CodeGen::X64::RegisterX64", ptr %5, i32 0, i32 0
  store i8 %2, ptr %18, align 1
  store ptr %0, ptr %6, align 8, !tbaa !4
  %19 = load ptr, ptr %6, align 8
  call void @llvm.lifetime.start.p0(i64 4, ptr %7) #10
  store i32 0, ptr %7, align 4, !tbaa !13
  br label %20

20:                                               ; preds = %51, %3
  %21 = load i32, ptr %7, align 4, !tbaa !13
  %22 = getelementptr inbounds nuw %"class.Luau::CodeGen::X64::IrCallWrapperX64", ptr %19, i32 0, i32 4
  %23 = load i32, ptr %22, align 4, !tbaa !23
  %24 = icmp slt i32 %21, %23
  br i1 %24, label %26, label %25

25:                                               ; preds = %20
  call void @llvm.lifetime.end.p0(i64 4, ptr %7) #10
  br label %54

26:                                               ; preds = %20
  call void @llvm.lifetime.start.p0(i64 8, ptr %8) #10
  %27 = getelementptr inbounds nuw %"class.Luau::CodeGen::X64::IrCallWrapperX64", ptr %19, i32 0, i32 3
  %28 = load i32, ptr %7, align 4, !tbaa !13
  %29 = sext i32 %28 to i64
  %30 = call noundef nonnull align 4 dereferenceable(25) ptr @_ZNSt5arrayIN4Luau7CodeGen3X6412CallArgumentELm6EEixEm(ptr noundef nonnull align 4 dereferenceable(168) %27, i64 noundef %29) #10
  store ptr %30, ptr %8, align 8, !tbaa !39
  %31 = load ptr, ptr %8, align 8, !tbaa !39
  %32 = getelementptr inbounds nuw %"struct.Luau::CodeGen::X64::CallArgument", ptr %31, i32 0, i32 5
  %33 = load i8, ptr %32, align 4, !tbaa !49, !range !116, !noundef !117
  %34 = trunc i8 %33 to i1
  br i1 %34, label %35, label %50

35:                                               ; preds = %26
  %36 = load ptr, ptr %8, align 8, !tbaa !39
  %37 = getelementptr inbounds nuw %"struct.Luau::CodeGen::X64::CallArgument", ptr %36, i32 0, i32 2
  %38 = getelementptr inbounds nuw %"struct.Luau::CodeGen::X64::OperandX64", ptr %37, i32 0, i32 2
  call void @llvm.memcpy.p0.p0.i64(ptr align 1 %9, ptr align 1 %4, i64 1, i1 false), !tbaa.struct !26
  call void @llvm.memcpy.p0.p0.i64(ptr align 1 %10, ptr align 1 %5, i64 1, i1 false), !tbaa.struct !26
  %39 = getelementptr inbounds nuw %"struct.Luau::CodeGen::X64::RegisterX64", ptr %9, i32 0, i32 0
  %40 = load i8, ptr %39, align 1
  %41 = getelementptr inbounds nuw %"struct.Luau::CodeGen::X64::RegisterX64", ptr %10, i32 0, i32 0
  %42 = load i8, ptr %41, align 1
  call void @_ZN4Luau7CodeGen3X6416IrCallWrapperX6414renameRegisterERNS1_11RegisterX64ES3_S3_(ptr noundef nonnull align 8 dereferenceable(240) %19, ptr noundef nonnull align 1 dereferenceable(1) %38, i8 %40, i8 %42)
  %43 = load ptr, ptr %8, align 8, !tbaa !39
  %44 = getelementptr inbounds nuw %"struct.Luau::CodeGen::X64::CallArgument", ptr %43, i32 0, i32 2
  %45 = getelementptr inbounds nuw %"struct.Luau::CodeGen::X64::OperandX64", ptr %44, i32 0, i32 1
  call void @llvm.memcpy.p0.p0.i64(ptr align 1 %11, ptr align 1 %4, i64 1, i1 false), !tbaa.struct !26
  call void @llvm.memcpy.p0.p0.i64(ptr align 1 %12, ptr align 1 %5, i64 1, i1 false), !tbaa.struct !26
  %46 = getelementptr inbounds nuw %"struct.Luau::CodeGen::X64::RegisterX64", ptr %11, i32 0, i32 0
  %47 = load i8, ptr %46, align 1
  %48 = getelementptr inbounds nuw %"struct.Luau::CodeGen::X64::RegisterX64", ptr %12, i32 0, i32 0
  %49 = load i8, ptr %48, align 1
  call void @_ZN4Luau7CodeGen3X6416IrCallWrapperX6414renameRegisterERNS1_11RegisterX64ES3_S3_(ptr noundef nonnull align 8 dereferenceable(240) %19, ptr noundef nonnull align 1 dereferenceable(1) %45, i8 %47, i8 %49)
  br label %50

50:                                               ; preds = %35, %26
  call void @llvm.lifetime.end.p0(i64 8, ptr %8) #10
  br label %51

51:                                               ; preds = %50
  %52 = load i32, ptr %7, align 4, !tbaa !13
  %53 = add nsw i32 %52, 1
  store i32 %53, ptr %7, align 4, !tbaa !13
  br label %20, !llvm.loop !126

54:                                               ; preds = %25
  %55 = getelementptr inbounds nuw %"class.Luau::CodeGen::X64::IrCallWrapperX64", ptr %19, i32 0, i32 7
  %56 = getelementptr inbounds nuw %"struct.Luau::CodeGen::X64::OperandX64", ptr %55, i32 0, i32 2
  call void @llvm.memcpy.p0.p0.i64(ptr align 1 %13, ptr align 1 %4, i64 1, i1 false), !tbaa.struct !26
  call void @llvm.memcpy.p0.p0.i64(ptr align 1 %14, ptr align 1 %5, i64 1, i1 false), !tbaa.struct !26
  %57 = getelementptr inbounds nuw %"struct.Luau::CodeGen::X64::RegisterX64", ptr %13, i32 0, i32 0
  %58 = load i8, ptr %57, align 1
  %59 = getelementptr inbounds nuw %"struct.Luau::CodeGen::X64::RegisterX64", ptr %14, i32 0, i32 0
  %60 = load i8, ptr %59, align 1
  call void @_ZN4Luau7CodeGen3X6416IrCallWrapperX6414renameRegisterERNS1_11RegisterX64ES3_S3_(ptr noundef nonnull align 8 dereferenceable(240) %19, ptr noundef nonnull align 1 dereferenceable(1) %56, i8 %58, i8 %60)
  %61 = getelementptr inbounds nuw %"class.Luau::CodeGen::X64::IrCallWrapperX64", ptr %19, i32 0, i32 7
  %62 = getelementptr inbounds nuw %"struct.Luau::CodeGen::X64::OperandX64", ptr %61, i32 0, i32 1
  call void @llvm.memcpy.p0.p0.i64(ptr align 1 %15, ptr align 1 %4, i64 1, i1 false), !tbaa.struct !26
  call void @llvm.memcpy.p0.p0.i64(ptr align 1 %16, ptr align 1 %5, i64 1, i1 false), !tbaa.struct !26
  %63 = getelementptr inbounds nuw %"struct.Luau::CodeGen::X64::RegisterX64", ptr %15, i32 0, i32 0
  %64 = load i8, ptr %63, align 1
  %65 = getelementptr inbounds nuw %"struct.Luau::CodeGen::X64::RegisterX64", ptr %16, i32 0, i32 0
  %66 = load i8, ptr %65, align 1
  call void @_ZN4Luau7CodeGen3X6416IrCallWrapperX6414renameRegisterERNS1_11RegisterX64ES3_S3_(ptr noundef nonnull align 8 dereferenceable(240) %19, ptr noundef nonnull align 1 dereferenceable(1) %62, i8 %64, i8 %66)
  ret void
}