; Function Attrs: mustprogress uwtable
define dso_local void @_ZN4Luau7CodeGen3X6416IrCallWrapperX6421renameSourceRegistersENS1_11RegisterX64ES3_(ptr noundef nonnull align 8 captures(none) dereferenceable(240) %0, i8 %1, i8 %2) local_unnamed_addr #4 align 2 {
  %4 = getelementptr inbounds nuw i8, ptr %0, i64 188
  %5 = load i32, ptr %4, align 4, !tbaa !29
  %6 = icmp sgt i32 %5, 0
  br i1 %6, label %.lr.ph, label %._crit_edge

.lr.ph:                                           ; preds = %3
  %7 = getelementptr inbounds nuw i8, ptr %0, i64 20
  br label %10

._crit_edge:                                      ; preds = %19, %3
  %8 = getelementptr inbounds nuw i8, ptr %0, i64 202
  tail call void @_ZN4Luau7CodeGen3X6416IrCallWrapperX6414renameRegisterERNS1_11RegisterX64ES3_S3_(ptr noundef nonnull align 8 dereferenceable(240) %0, ptr noundef nonnull align 1 dereferenceable(1) %8, i8 %1, i8 %2)
  %9 = getelementptr inbounds nuw i8, ptr %0, i64 201
  tail call void @_ZN4Luau7CodeGen3X6416IrCallWrapperX6414renameRegisterERNS1_11RegisterX64ES3_S3_(ptr noundef nonnull align 8 dereferenceable(240) %0, ptr noundef nonnull align 1 dereferenceable(1) %9, i8 %1, i8 %2)
  ret void

10:                                               ; preds = %.lr.ph, %19
  %11 = phi i32 [ %5, %.lr.ph ], [ %20, %19 ]
  %indvars.iv = phi i64 [ 0, %.lr.ph ], [ %indvars.iv.next, %19 ]
  %12 = getelementptr inbounds nuw [6 x %"struct.Luau::CodeGen::X64::CallArgument"], ptr %7, i64 0, i64 %indvars.iv
  %13 = getelementptr inbounds nuw i8, ptr %12, i64 24
  %14 = load i8, ptr %13, align 4, !tbaa !28, !range !87, !noundef !88
  %15 = trunc nuw i8 %14 to i1
  br i1 %15, label %16, label %19

16:                                               ; preds = %10
  %17 = getelementptr inbounds nuw i8, ptr %12, i64 6
  tail call void @_ZN4Luau7CodeGen3X6416IrCallWrapperX6414renameRegisterERNS1_11RegisterX64ES3_S3_(ptr noundef nonnull align 8 dereferenceable(240) %0, ptr noundef nonnull align 1 dereferenceable(1) %17, i8 %1, i8 %2)
  %18 = getelementptr inbounds nuw i8, ptr %12, i64 5
  tail call void @_ZN4Luau7CodeGen3X6416IrCallWrapperX6414renameRegisterERNS1_11RegisterX64ES3_S3_(ptr noundef nonnull align 8 dereferenceable(240) %0, ptr noundef nonnull align 1 dereferenceable(1) %18, i8 %1, i8 %2)
  %.pre = load i32, ptr %4, align 4, !tbaa !29
  br label %19

19:                                               ; preds = %16, %10
  %20 = phi i32 [ %.pre, %16 ], [ %11, %10 ]
  %indvars.iv.next = add nuw nsw i64 %indvars.iv, 1
  %21 = sext i32 %20 to i64
  %22 = icmp slt i64 %indvars.iv.next, %21
  br i1 %22, label %10, label %._crit_edge, !llvm.loop !95
}